target datalayout = "e-m:e-p270:32:32-p271:32:32-p272:64:64-i64:64-i128:128-f80:128-n8:16:32:64-S128"
target triple = "x86_64-pc-linux-gnu"

%struct.hwloc_topology = type { i32, i32, i32, ptr, ptr, i64, [20 x i32], [20 x i32], i64, i64, i32, ptr, i64, ptr, i64, [6 x %struct.hwloc_special_level_s], ptr, ptr, %struct.hwloc_binding_hooks, %struct.hwloc_topology_support, %struct.hwloc_infos_s, ptr, ptr, i32, ptr, ptr, i32, i32, ptr, i32, i32, ptr, i32, i32, i32, [5 x float], i32, ptr, ptr, i32, i32, ptr, i32, %struct.hwloc_numanode_attr_s, i32, i32, ptr, i64, i32, ptr, ptr, ptr }
%struct.hwloc_special_level_s = type { i32, ptr, ptr, ptr }
%struct.hwloc_binding_hooks = type { ptr, ptr, ptr, ptr, ptr, ptr, ptr, ptr, ptr, ptr, ptr, ptr, ptr, ptr, ptr, ptr, ptr, ptr, ptr, ptr, ptr, ptr, ptr, ptr }
%struct.hwloc_topology_support = type { ptr, ptr, ptr, ptr }
%struct.hwloc_infos_s = type { ptr, i32, i32 }
%struct.hwloc_numanode_attr_s = type { i64, i32, ptr }

; Function Attrs: nounwind uwtable
define hidden void @hwloc__topology_disadopt(ptr noundef %0) #0 {
  %2 = alloca ptr, align 8
  store ptr %0, ptr %2, align 8, !tbaa !3
  call void @hwloc_components_fini()
  %3 = load ptr, ptr %2, align 8, !tbaa !3
  %4 = getelementptr inbounds nuw %struct.hwloc_topology, ptr %3, i32 0, i32 20
  call void @hwloc__free_infos(ptr noundef %4)
  %5 = load ptr, ptr %2, align 8, !tbaa !3
  %6 = getelementptr inbounds nuw %struct.hwloc_topology, ptr %5, i32 0, i32 13
  %7 = load ptr, ptr %6, align 8, !tbaa !50
  %8 = load ptr, ptr %2, align 8, !tbaa !3
  %9 = getelementptr inbounds nuw %struct.hwloc_topology, ptr %8, i32 0, i32 14
  %10 = load i64, ptr %9, align 8, !tbaa !51
  %11 = call i32 @munmap(ptr noundef %7, i64 noundef %10) #7
  %12 = load ptr, ptr %2, align 8, !tbaa !3
  %13 = getelementptr inbounds nuw %struct.hwloc_topology, ptr %12, i32 0, i32 19
  %14 = getelementptr inbounds nuw %struct.hwloc_topology_support, ptr %13, i32 0, i32 0
  %15 = load ptr, ptr %14, align 8, !tbaa !53
  call void @free(ptr noundef %15) #7
  %16 = load ptr, ptr %2, align 8, !tbaa !3
  %17 = getelementptr inbounds nuw %struct.hwloc_topology, ptr %16, i32 0, i32 19
  %18 = getelementptr inbounds nuw %struct.hwloc_topology_support, ptr %17, i32 0, i32 1
  %19 = load ptr, ptr %18, align 8, !tbaa !54
  call void @free(ptr noundef %19) #7
  %20 = load ptr, ptr %2, align 8, !tbaa !3
  %21 = getelementptr inbounds nuw %struct.hwloc_topology, ptr %20, i32 0, i32 19
  %22 = getelementptr inbounds nuw %struct.hwloc_topology_support, ptr %21, i32 0, i32 2
  %23 = load ptr, ptr %22, align 8, !tbaa !55
  call void @free(ptr noundef %23) #7
  %24 = load ptr, ptr %2, align 8, !tbaa !3
  %25 = getelementptr inbounds nuw %struct.hwloc_topology, ptr %24, i32 0, i32 19
  %26 = getelementptr inbounds nuw %struct.hwloc_topology_support, ptr %25, i32 0, i32 3
  %27 = load ptr, ptr %26, align 8, !tbaa !56
  call void @free(ptr noundef %27) #7
  %28 = load ptr, ptr %2, align 8, !tbaa !3
  call void @free(ptr noundef %28) #7
  ret void
}