; Function Attrs: nounwind uwtable
define hidden void @hwloc__topology_disadopt(ptr noundef %0) local_unnamed_addr #0 {
  tail call void @hwloc_components_fini() #13
  %2 = getelementptr inbounds nuw i8, ptr %0, i64 688
  tail call void @hwloc__free_infos(ptr noundef nonnull %2) #13
  %3 = getelementptr inbounds nuw i8, ptr %0, i64 240
  %4 = load ptr, ptr %3, align 8, !tbaa !44
  %5 = getelementptr inbounds nuw i8, ptr %0, i64 248
  %6 = load i64, ptr %5, align 8, !tbaa !45
  %7 = tail call i32 @munmap(ptr noundef %4, i64 noundef %6) #13
  %8 = getelementptr inbounds nuw i8, ptr %0, i64 656
  %9 = load ptr, ptr %8, align 8, !tbaa !47
  tail call void @free(ptr noundef %9) #13
  %10 = getelementptr inbounds nuw i8, ptr %0, i64 664
  %11 = load ptr, ptr %10, align 8, !tbaa !48
  tail call void @free(ptr noundef %11) #13
  %12 = getelementptr inbounds nuw i8, ptr %0, i64 672
  %13 = load ptr, ptr %12, align 8, !tbaa !49
  tail call void @free(ptr noundef %13) #13
  %14 = getelementptr inbounds nuw i8, ptr %0, i64 680
  %15 = load ptr, ptr %14, align 8, !tbaa !50
  tail call void @free(ptr noundef %15) #13
  tail call void @free(ptr noundef %0) #13
  ret void
}